target datalayout = "e-m:e-p270:32:32-p271:32:32-p272:64:64-i64:64-i128:128-f80:128-n8:16:32:64-S128"
target triple = "x86_64-pc-linux-gnu"

@_ZL14stop_condition = internal global i32 0, align 4
@_ZL16last_signal_name = internal global i32 0, align 4

; Function Attrs: mustprogress nounwind uwtable
define void @_Z22gmx_set_stop_condition13StopCondition(i32 noundef %0) #2 {
  %2 = alloca i32, align 4
  store i32 %0, ptr %2, align 4
  %3 = load i32, ptr %2, align 4
  %4 = load volatile i32, ptr @_ZL14stop_condition, align 4
  %5 = icmp sgt i32 %3, %4
  br i1 %5, label %6, label %16

6:                                                ; preds = %1
  %7 = load i32, ptr %2, align 4
  store volatile i32 %7, ptr @_ZL14stop_condition, align 4
  %8 = load volatile i32, ptr @_ZL14stop_condition, align 4
  %9 = icmp eq i32 %8, 1
  br i1 %9, label %10, label %11

10:                                               ; preds = %6
  store volatile i32 4, ptr @_ZL16last_signal_name, align 4
  br label %11

11:                                               ; preds = %10, %6
  %12 = load volatile i32, ptr @_ZL14stop_condition, align 4
  %13 = icmp eq i32 %12, 2
  br i1 %13, label %14, label %15

14:                                               ; preds = %11
  store volatile i32 5, ptr @_ZL16last_signal_name, align 4
  br label %15

15:                                               ; preds = %14, %11
  br label %16

16:                                               ; preds = %15, %1
  ret void
}