; Function Attrs: mustprogress nofree norecurse nounwind memory(readwrite, argmem: none) uwtable
define void @_Z22gmx_set_stop_condition13StopCondition(i32 noundef %0) local_unnamed_addr #2 {
  %2 = load volatile i32, ptr @_ZL14stop_condition, align 4
  %3 = icmp slt i32 %2, %0
  br i1 %3, label %4, label %12

4:                                                ; preds = %1
  store volatile i32 %0, ptr @_ZL14stop_condition, align 4
  %5 = load volatile i32, ptr @_ZL14stop_condition, align 4
  %6 = icmp eq i32 %5, 1
  br i1 %6, label %7, label %8

7:                                                ; preds = %4
  store volatile i32 4, ptr @_ZL16last_signal_name, align 4
  br label %8

8:                                                ; preds = %7, %4
  %9 = load volatile i32, ptr @_ZL14stop_condition, align 4
  %10 = icmp eq i32 %9, 2
  br i1 %10, label %11, label %12

11:                                               ; preds = %8
  store volatile i32 5, ptr @_ZL16last_signal_name, align 4
  br label %12

12:                                               ; preds = %8, %11, %1
  ret void
}